target datalayout = "e-m:e-p270:32:32-p271:32:32-p272:64:64-i64:64-i128:128-f80:128-n8:16:32:64-S128"
target triple = "x86_64-pc-linux-gnu"

%struct.CreateOpClassStmt = type { i32, ptr, ptr, ptr, ptr, ptr, i8 }

; Function Attrs: nounwind uwtable
define internal zeroext i1 @_equalCreateOpClassStmt(ptr noundef %0, ptr noundef %1) #0 {
  %3 = alloca i1, align 1
  %4 = alloca ptr, align 8
  %5 = alloca ptr, align 8
  store ptr %0, ptr %4, align 8
  store ptr %1, ptr %5, align 8
  br label %6

6:                                                ; preds = %2
  %7 = load ptr, ptr %4, align 8
  %8 = getelementptr inbounds nuw %struct.CreateOpClassStmt, ptr %7, i32 0, i32 1
  %9 = load ptr, ptr %8, align 8
  %10 = load ptr, ptr %5, align 8
  %11 = getelementptr inbounds nuw %struct.CreateOpClassStmt, ptr %10, i32 0, i32 1
  %12 = load ptr, ptr %11, align 8
  %13 = call zeroext i1 @equal(ptr noundef %9, ptr noundef %12)
  br i1 %13, label %15, label %14

14:                                               ; preds = %6
  store i1 false, ptr %3, align 1
  br label %95

15:                                               ; preds = %6
  br label %16

16:                                               ; preds = %15
  br label %17

17:                                               ; preds = %16
  %18 = load ptr, ptr %4, align 8
  %19 = getelementptr inbounds nuw %struct.CreateOpClassStmt, ptr %18, i32 0, i32 2
  %20 = load ptr, ptr %19, align 8
  %21 = load ptr, ptr %5, align 8
  %22 = getelementptr inbounds nuw %struct.CreateOpClassStmt, ptr %21, i32 0, i32 2
  %23 = load ptr, ptr %22, align 8
  %24 = call zeroext i1 @equal(ptr noundef %20, ptr noundef %23)
  br i1 %24, label %26, label %25

25:                                               ; preds = %17
  store i1 false, ptr %3, align 1
  br label %95

26:                                               ; preds = %17
  br label %27

27:                                               ; preds = %26
  br label %28

28:                                               ; preds = %27
  %29 = load ptr, ptr %4, align 8
  %30 = getelementptr inbounds nuw %struct.CreateOpClassStmt, ptr %29, i32 0, i32 3
  %31 = load ptr, ptr %30, align 8
  %32 = icmp ne ptr %31, null
  br i1 %32, label %33, label %47

33:                                               ; preds = %28
  %34 = load ptr, ptr %5, align 8
  %35 = getelementptr inbounds nuw %struct.CreateOpClassStmt, ptr %34, i32 0, i32 3
  %36 = load ptr, ptr %35, align 8
  %37 = icmp ne ptr %36, null
  br i1 %37, label %38, label %47

38:                                               ; preds = %33
  %39 = load ptr, ptr %4, align 8
  %40 = getelementptr inbounds nuw %struct.CreateOpClassStmt, ptr %39, i32 0, i32 3
  %41 = load ptr, ptr %40, align 8
  %42 = load ptr, ptr %5, align 8
  %43 = getelementptr inbounds nuw %struct.CreateOpClassStmt, ptr %42, i32 0, i32 3
  %44 = load ptr, ptr %43, align 8
  %45 = call i32 @strcmp(ptr noundef %41, ptr noundef %44) #8
  %46 = icmp eq i32 %45, 0
  br i1 %46, label %56, label %55

47:                                               ; preds = %33, %28
  %48 = load ptr, ptr %4, align 8
  %49 = getelementptr inbounds nuw %struct.CreateOpClassStmt, ptr %48, i32 0, i32 3
  %50 = load ptr, ptr %49, align 8
  %51 = load ptr, ptr %5, align 8
  %52 = getelementptr inbounds nuw %struct.CreateOpClassStmt, ptr %51, i32 0, i32 3
  %53 = load ptr, ptr %52, align 8
  %54 = icmp eq ptr %50, %53
  br i1 %54, label %56, label %55

55:                                               ; preds = %47, %38
  store i1 false, ptr %3, align 1
  br label %95

56:                                               ; preds = %47, %38
  br label %57

57:                                               ; preds = %56
  br label %58

58:                                               ; preds = %57
  %59 = load ptr, ptr %4, align 8
  %60 = getelementptr inbounds nuw %struct.CreateOpClassStmt, ptr %59, i32 0, i32 4
  %61 = load ptr, ptr %60, align 8
  %62 = load ptr, ptr %5, align 8
  %63 = getelementptr inbounds nuw %struct.CreateOpClassStmt, ptr %62, i32 0, i32 4
  %64 = load ptr, ptr %63, align 8
  %65 = call zeroext i1 @equal(ptr noundef %61, ptr noundef %64)
  br i1 %65, label %67, label %66

66:                                               ; preds = %58
  store i1 false, ptr %3, align 1
  br label %95

67:                                               ; preds = %58
  br label %68

68:                                               ; preds = %67
  br label %69

69:                                               ; preds = %68
  %70 = load ptr, ptr %4, align 8
  %71 = getelementptr inbounds nuw %struct.CreateOpClassStmt, ptr %70, i32 0, i32 5
  %72 = load ptr, ptr %71, align 8
  %73 = load ptr, ptr %5, align 8
  %74 = getelementptr inbounds nuw %struct.CreateOpClassStmt, ptr %73, i32 0, i32 5
  %75 = load ptr, ptr %74, align 8
  %76 = call zeroext i1 @equal(ptr noundef %72, ptr noundef %75)
  br i1 %76, label %78, label %77

77:                                               ; preds = %69
  store i1 false, ptr %3, align 1
  br label %95

78:                                               ; preds = %69
  br label %79

79:                                               ; preds = %78
  br label %80

80:                                               ; preds = %79
  %81 = load ptr, ptr %4, align 8
  %82 = getelementptr inbounds nuw %struct.CreateOpClassStmt, ptr %81, i32 0, i32 6
  %83 = load i8, ptr %82, align 8, !range !4, !noundef !5
  %84 = trunc i8 %83 to i1
  %85 = zext i1 %84 to i32
  %86 = load ptr, ptr %5, align 8
  %87 = getelementptr inbounds nuw %struct.CreateOpClassStmt, ptr %86, i32 0, i32 6
  %88 = load i8, ptr %87, align 8, !range !4, !noundef !5
  %89 = trunc i8 %88 to i1
  %90 = zext i1 %89 to i32
  %91 = icmp ne i32 %85, %90
  br i1 %91, label %92, label %93

92:                                               ; preds = %80
  store i1 false, ptr %3, align 1
  br label %95

93:                                               ; preds = %80
  br label %94

94:                                               ; preds = %93
  store i1 true, ptr %3, align 1
  br label %95

95:                                               ; preds = %94, %92, %77, %66, %55, %25, %14
  %96 = load i1, ptr %3, align 1
  ret i1 %96
}