; Function Attrs: nounwind uwtable
define internal fastcc noundef zeroext i1 @_equalCreateOpClassStmt(ptr noundef nonnull readonly captures(none) %0, ptr noundef nonnull readonly captures(none) %1) unnamed_addr #0 {
  %3 = getelementptr inbounds nuw i8, ptr %0, i64 8
  %4 = load ptr, ptr %3, align 8
  %5 = getelementptr inbounds nuw i8, ptr %1, i64 8
  %6 = load ptr, ptr %5, align 8
  %7 = tail call zeroext i1 @equal(ptr noundef %4, ptr noundef %6)
  br i1 %7, label %8, label %.thread

8:                                                ; preds = %2
  %9 = getelementptr inbounds nuw i8, ptr %0, i64 16
  %10 = load ptr, ptr %9, align 8
  %11 = getelementptr inbounds nuw i8, ptr %1, i64 16
  %12 = load ptr, ptr %11, align 8
  %13 = tail call zeroext i1 @equal(ptr noundef %10, ptr noundef %12)
  br i1 %13, label %14, label %.thread

14:                                               ; preds = %8
  %15 = getelementptr inbounds nuw i8, ptr %0, i64 24
  %16 = load ptr, ptr %15, align 8
  %.not = icmp eq ptr %16, null
  %.phi.trans.insert = getelementptr inbounds nuw i8, ptr %1, i64 24
  %.pre = load ptr, ptr %.phi.trans.insert, align 8
  br i1 %.not, label %21, label %17

17:                                               ; preds = %14
  %.not19 = icmp eq ptr %.pre, null
  br i1 %.not19, label %.thread, label %18

18:                                               ; preds = %17
  %19 = tail call i32 @strcmp(ptr noundef nonnull dereferenceable(1) %16, ptr noundef nonnull dereferenceable(1) %.pre) #11
  %20 = icmp eq i32 %19, 0
  br i1 %20, label %23, label %.thread

21:                                               ; preds = %14
  %22 = icmp eq ptr %16, %.pre
  br i1 %22, label %23, label %.thread

23:                                               ; preds = %21, %18
  %24 = getelementptr inbounds nuw i8, ptr %0, i64 32
  %25 = load ptr, ptr %24, align 8
  %26 = getelementptr inbounds nuw i8, ptr %1, i64 32
  %27 = load ptr, ptr %26, align 8
  %28 = tail call zeroext i1 @equal(ptr noundef %25, ptr noundef %27)
  br i1 %28, label %29, label %.thread

29:                                               ; preds = %23
  %30 = getelementptr inbounds nuw i8, ptr %0, i64 40
  %31 = load ptr, ptr %30, align 8
  %32 = getelementptr inbounds nuw i8, ptr %1, i64 40
  %33 = load ptr, ptr %32, align 8
  %34 = tail call zeroext i1 @equal(ptr noundef %31, ptr noundef %33)
  br i1 %34, label %35, label %.thread

35:                                               ; preds = %29
  %36 = getelementptr inbounds nuw i8, ptr %0, i64 48
  %37 = load i8, ptr %36, align 8, !range !4, !noundef !5
  %38 = getelementptr inbounds nuw i8, ptr %1, i64 48
  %39 = load i8, ptr %38, align 8, !range !4, !noundef !5
  %.not20 = icmp eq i8 %37, %39
  br label %.thread

.thread:                                          ; preds = %17, %35, %29, %23, %18, %21, %8, %2
  %.0 = phi i1 [ false, %2 ], [ false, %8 ], [ false, %21 ], [ false, %18 ], [ false, %23 ], [ false, %29 ], [ %.not20, %35 ], [ false, %17 ]
  ret i1 %.0
}